; Function Attrs: mustprogress nounwind uwtable
define dso_local void @_ZN4llvm16CodeGenIntrinsic20setDefaultPropertiesENS_8ArrayRefIPKNS_6RecordEEE(ptr noundef nonnull align 8 dereferenceable(240) %0, ptr readonly %1, i64 %2) local_unnamed_addr #0 align 2 {
  %4 = load ptr, ptr %0, align 8
  %5 = tail call noundef zeroext i1 @_ZNK4llvm6Record13getValueAsBitENS_9StringRefE(ptr noundef nonnull align 8 dereferenceable(192) %4, ptr nonnull @.str.19, i64 24) #17
  br i1 %5, label %.loopexit, label %6

6:                                                ; preds = %3
  %7 = getelementptr inbounds ptr, ptr %1, i64 %2
  %.not10 = icmp eq i64 %2, 0
  br i1 %.not10, label %.loopexit, label %.lr.ph

.lr.ph:                                           ; preds = %6, %.lr.ph
  %.011 = phi ptr [ %9, %.lr.ph ], [ %1, %6 ]
  %8 = load ptr, ptr %.011, align 8
  tail call void @_ZN4llvm16CodeGenIntrinsic11setPropertyEPKNS_6RecordE(ptr noundef nonnull align 8 dereferenceable(240) %0, ptr noundef %8)
  %9 = getelementptr inbounds nuw i8, ptr %.011, i64 8
  %.not = icmp eq ptr %9, %7
  br i1 %.not, label %.loopexit, label %.lr.ph

.loopexit:                                        ; preds = %.lr.ph, %6, %3
  ret void
}